target datalayout = "e-m:e-p270:32:32-p271:32:32-p272:64:64-i64:64-i128:128-f80:128-n8:16:32:64-S128"
target triple = "x86_64-pc-linux-gnu"

; Function Attrs: inlinehint nounwind uwtable
define internal i32 @MEM_swap32(i32 noundef %0) #1 {
  %2 = alloca i32, align 4
  store i32 %0, ptr %2, align 4, !tbaa !13
  %3 = load i32, ptr %2, align 4, !tbaa !13
  %4 = call i32 @llvm.bswap.i32(i32 %3)
  ret i32 %4
}

; Function Attrs: inlinehint nounwind uwtable
define internal i32 @MEM_read32(ptr noundef %0) #1 {
  %2 = alloca ptr, align 8
  store ptr %0, ptr %2, align 8, !tbaa !7
  %3 = load ptr, ptr %2, align 8, !tbaa !7
  %4 = load i32, ptr %3, align 1, !tbaa !13
  ret i32 %4
}

; Function Attrs: inlinehint nounwind uwtable
define internal i32 @MEM_isLittleEndian() #1 {
  ret i32 1
}

; Function Attrs: inlinehint nounwind uwtable
define internal i32 @MEM_readLE32(ptr noundef %0) #1 {
  %2 = alloca i32, align 4
  %3 = alloca ptr, align 8
  store ptr %0, ptr %3, align 8, !tbaa !7
  %4 = call i32 @MEM_isLittleEndian()
  %5 = icmp ne i32 %4, 0
  br i1 %5, label %6, label %9

6:                                                ; preds = %1
  %7 = load ptr, ptr %3, align 8, !tbaa !7
  %8 = call i32 @MEM_read32(ptr noundef %7)
  store i32 %8, ptr %2, align 4
  br label %13

9:                                                ; preds = %1
  %10 = load ptr, ptr %3, align 8, !tbaa !7
  %11 = call i32 @MEM_read32(ptr noundef %10)
  %12 = call i32 @MEM_swap32(i32 noundef %11)
  store i32 %12, ptr %2, align 4
  br label %13

13:                                               ; preds = %9, %6
  %14 = load i32, ptr %2, align 4
  ret i32 %14
}

; Function Attrs: nounwind uwtable
define i64 @ZDICT_getDictHeaderSize(ptr noundef %0, i64 noundef %1) #0 {
  %3 = alloca i64, align 8
  %4 = alloca ptr, align 8
  %5 = alloca i64, align 8
  %6 = alloca i64, align 8
  %7 = alloca i32, align 4
  %8 = alloca ptr, align 8
  %9 = alloca ptr, align 8
  store ptr %0, ptr %4, align 8, !tbaa !7
  store i64 %1, ptr %5, align 8, !tbaa !3
  call void @llvm.lifetime.start.p0(i64 8, ptr %6) #10
  %10 = load i64, ptr %5, align 8, !tbaa !3
  %11 = icmp ule i64 %10, 8
  br i1 %11, label %16, label %12

12:                                               ; preds = %2
  %13 = load ptr, ptr %4, align 8, !tbaa !7
  %14 = call i32 @MEM_readLE32(ptr noundef %13)
  %15 = icmp ne i32 %14, -332356553
  br i1 %15, label %16, label %17

16:                                               ; preds = %12, %2
  store i64 -30, ptr %3, align 8
  store i32 1, ptr %7, align 4
  br label %37

17:                                               ; preds = %12
  call void @llvm.lifetime.start.p0(i64 8, ptr %8) #10
  %18 = call noalias ptr @malloc(i64 noundef 5632) #11
  store ptr %18, ptr %8, align 8, !tbaa !7
  call void @llvm.lifetime.start.p0(i64 8, ptr %9) #10
  %19 = call noalias ptr @malloc(i64 noundef 8704) #11
  store ptr %19, ptr %9, align 8, !tbaa !9
  %20 = load ptr, ptr %8, align 8, !tbaa !7
  %21 = icmp ne ptr %20, null
  br i1 %21, label %22, label %25

22:                                               ; preds = %17
  %23 = load ptr, ptr %9, align 8, !tbaa !9
  %24 = icmp ne ptr %23, null
  br i1 %24, label %26, label %25

25:                                               ; preds = %22, %17
  store i64 -64, ptr %6, align 8, !tbaa !3
  br label %33

26:                                               ; preds = %22
  %27 = load ptr, ptr %8, align 8, !tbaa !7
  call void @ZSTD_reset_compressedBlockState(ptr noundef %27)
  %28 = load ptr, ptr %8, align 8, !tbaa !7
  %29 = load ptr, ptr %9, align 8, !tbaa !9
  %30 = load ptr, ptr %4, align 8, !tbaa !7
  %31 = load i64, ptr %5, align 8, !tbaa !3
  %32 = call i64 @ZSTD_loadCEntropy(ptr noundef %28, ptr noundef %29, ptr noundef %30, i64 noundef %31)
  store i64 %32, ptr %6, align 8, !tbaa !3
  br label %33

33:                                               ; preds = %26, %25
  %34 = load ptr, ptr %8, align 8, !tbaa !7
  call void @free(ptr noundef %34) #10
  %35 = load ptr, ptr %9, align 8, !tbaa !9
  call void @free(ptr noundef %35) #10
  call void @llvm.lifetime.end.p0(i64 8, ptr %9) #10
  call void @llvm.lifetime.end.p0(i64 8, ptr %8) #10
  %36 = load i64, ptr %6, align 8, !tbaa !3
  store i64 %36, ptr %3, align 8
  store i32 1, ptr %7, align 4
  br label %37

37:                                               ; preds = %33, %16
  call void @llvm.lifetime.end.p0(i64 8, ptr %6) #10
  %38 = load i64, ptr %3, align 8
  ret i64 %38
}